target datalayout = "e-m:e-p270:32:32-p271:32:32-p272:64:64-i64:64-i128:128-f80:128-n8:16:32:64-S128"
target triple = "x86_64-pc-linux-gnu"

%struct._PyPathConfig = type { ptr, ptr, ptr, ptr, ptr, ptr, ptr, ptr, i32 }
%struct.PyMemAllocatorEx = type { ptr, ptr, ptr, ptr, ptr }

@_Py_path_config = hidden global { ptr, ptr, ptr, ptr, ptr, ptr, ptr, ptr, i32, [4 x i8] } zeroinitializer, align 8
@__func__.Py_SetPythonHome = private unnamed_addr constant [17 x i8] c"Py_SetPythonHome\00", align 1

; Function Attrs: nounwind uwtable
define dso_local void @Py_SetPythonHome(ptr noundef %0) #0 {
  %2 = alloca ptr, align 8
  %3 = alloca i32, align 4
  %4 = alloca %struct.PyMemAllocatorEx, align 8
  store ptr %0, ptr %2, align 8, !tbaa !41
  call void @llvm.lifetime.start.p0(i64 4, ptr %3) #9
  %5 = load ptr, ptr %2, align 8, !tbaa !41
  %6 = icmp ne ptr %5, null
  br i1 %6, label %7, label %12

7:                                                ; preds = %1
  %8 = load ptr, ptr %2, align 8, !tbaa !41
  %9 = getelementptr i32, ptr %8, i64 0
  %10 = load i32, ptr %9, align 4, !tbaa !27
  %11 = icmp ne i32 %10, 0
  br label %12

12:                                               ; preds = %7, %1
  %13 = phi i1 [ false, %1 ], [ %11, %7 ]
  %14 = zext i1 %13 to i32
  store i32 %14, ptr %3, align 4, !tbaa !27
  call void @llvm.lifetime.start.p0(i64 40, ptr %4) #9
  %15 = call i32 @_PyMem_SetDefaultAllocator(i32 noundef 0, ptr noundef %4)
  %16 = load ptr, ptr getelementptr inbounds nuw (%struct._PyPathConfig, ptr @_Py_path_config, i32 0, i32 7), align 8, !tbaa !17
  call void @PyMem_RawFree(ptr noundef %16)
  store ptr null, ptr getelementptr inbounds nuw (%struct._PyPathConfig, ptr @_Py_path_config, i32 0, i32 7), align 8, !tbaa !17
  %17 = load i32, ptr %3, align 4, !tbaa !27
  %18 = icmp ne i32 %17, 0
  br i1 %18, label %19, label %22

19:                                               ; preds = %12
  %20 = load ptr, ptr %2, align 8, !tbaa !41
  %21 = call ptr @_PyMem_RawWcsdup(ptr noundef %20)
  store ptr %21, ptr getelementptr inbounds nuw (%struct._PyPathConfig, ptr @_Py_path_config, i32 0, i32 7), align 8, !tbaa !17
  br label %22

22:                                               ; preds = %19, %12
  call void @PyMem_SetAllocator(i32 noundef 0, ptr noundef %4)
  %23 = load i32, ptr %3, align 4, !tbaa !27
  %24 = icmp ne i32 %23, 0
  br i1 %24, label %25, label %29

25:                                               ; preds = %22
  %26 = load ptr, ptr getelementptr inbounds nuw (%struct._PyPathConfig, ptr @_Py_path_config, i32 0, i32 7), align 8, !tbaa !17
  %27 = icmp eq ptr %26, null
  br i1 %27, label %28, label %29

28:                                               ; preds = %25
  call void @path_out_of_memory(ptr noundef @__func__.Py_SetPythonHome) #11
  unreachable

29:                                               ; preds = %25, %22
  call void @llvm.lifetime.end.p0(i64 40, ptr %4) #9
  call void @llvm.lifetime.end.p0(i64 4, ptr %3) #9
  ret void
}